(dp1
S'sg_version_data'
p2
(dp3
S'code'
p4
S'v1.3.16'
p5
sS'description'
p6
S'[No wiki release notes found]'
p7
sS'tags'
p8
(lp9
sS'sg_payload'
p10
(dp11
S'name'
p12
S'tk-config-default2_v1.3.16.zip'
p13
sS'url'
p14
S'https://s3-proxy.shotgunstudio.com/d18c13bf0e59a9a82f18be518a1b6b508bcbd774/a74d58d2958c896a5f854e3eb0a7ab2a327adace/tk-config-default2_v1.3.16.zip?response-content-disposition=filename%3D%22tk-config-default2_v1.3.16.zip%22&x-amz-meta-user-id=4183&x-amz-meta-user-type=ApiUser&X-Amz-Algorithm=AWS4-HMAC-SHA256&X-Amz-Credential=ASIAYJG6Z4JIZLGBSLHZ%2F20201221%2Fus-west-2%2Fs3%2Faws4_request&X-Amz-Date=20201221T103428Z&X-Amz-Expires=900&X-Amz-SignedHeaders=host&X-Amz-Security-Token=FwoGZXIvYXdzEPT%2F%2F%2F%2F%2F%2F%2F%2F%2F%2FwEaDB%2Bd%2BV%2Bv4fONOj6zmiKvAZEymNx90uJinQJi7fI%2BkQ7%2Bng70ZwYIq3X5Io6dSws8KPrph98SDZx%2FTMrXXWUD52mBEQ6QcFYGoRGX7kY8pPqFAtQdXwk1Z3Fvj%2BAnTs09kj4Yk0%2BSu6j5UnUYqQuOL24KYKks3QaftmWlLTP5rHF8rNkfnU4xp0bvyQAJT%2Bctycont1vr8%2FClK5mJNu2tJWNyIg1G7Z7Otpjwb7dFhQdx%2BUTJBGLNxe4Y9vijBpsovOmB%2FwUyLYb1j1UwcyAYni78ojoKOhxcgfnu7lEJSvNhf41Jk4qsBrrHLvYuDL4s5cZffw%3D%3D&X-Amz-Signature=1cffc6685d74b69b54bb97bdd134b18e7d83be9ffcbd31ba4af00ab107f4c1c5'
p15
sS'content_type'
p16
S'application/zip'
p17
sS'type'
p18
S'Attachment'
p19
sS'id'
p20
I23697
sS'link_type'
p21
S'upload'
p22
ssS'sg_status_list'
p23
S'prod'
p24
sS'sg_detailed_release_notes'
p25
(dp26
S'name'
p27
S'v1.3.16'
p28
sS'url'
p29
S'https://support.shotgunsoftware.com/hc/en-us/articles/360042159573#1_3_16'
p30
sS'content_type'
p31
NsS'type'
p32
S'Attachment'
p33
sS'id'
p34
I23701
sS'link_type'
p35
S'web'
p36
ssS'sg_documentation'
p37
NsS'type'
p38
S'CustomNonProjectEntity08'
p39
sS'id'
p40
I1400
ssS'sg_bundle_data'
p41
(dp42
S'sg_status_list'
p43
S'hidden'
p44
sS'type'
p45
S'CustomNonProjectEntity07'
p46
sS'id'
p47
I81
sS'sg_system_name'
p48
S'tk-config-default2'
p49
sS'sg_deprecation_message'
p50
Nss.